(dp0
S'rontcount'
p1
(lp2
S'R On T Count'
p3
asS'pvcruncount'
p4
(lp5
S'PVC Run Count'
p6
asS'stv3'
p7
(lp8
S'ST_V3'
p9
asS'ventpacedpercent'
p10
(lp11
S'Vent Paced Percent'
p12
asS'uvp'
p13
(lp14
S'UVP'
p15
asS'pvcpaircount'
p16
(lp17
S'PVC Pair Count'
p18
asS'ci'
p19
(lp20
S'CI'
p21
asS'artsys'
p22
(lp23
S'ART Sys'
p24
aS'ART SYS'
p25
asS'uapmean'
p26
(lp27
S'UAP MEAN'
p28
aS'UAP Mean'
p29
asS'maxpvcrun'
p30
(lp31
S'Max PVC Run'
p32
asS'nbpmean'
p33
(lp34
S'NBPMean'
p35
aS'NBP MEAN'
p36
aS'NBP Mean'
p37
asS'pacernotpacecount'
p38
(lp39
S'Pacer Not Pace Count'
p40
asS'stavl'
p41
(lp42
S'ST_AVL'
p43
aS'ST AVL'
p44
asS'bapsys'
p45
(lp46
S'BAP SYS'
p47
asS'spo2r'
p48
(lp49
S'SpO2 R'
p50
aS'SpO2 r'
p51
asS'stavr'
p52
(lp53
S'ST_AVR'
p54
aS'ST AVR'
p55
asS'resp'
p56
(lp57
S'RESP'
p58
asS'spo2l'
p59
(lp60
S'SpO2 L'
p61
aS'SpO2 l'
p62
asS'p1dias'
p63
(lp64
S'P1 Dias'
p65
aS'P1 DIAS'
p66
asS'sratemin'
p67
(lp68
S'S Rate Min'
p69
asS'svcount'
p70
(lp71
S'SV Count'
p72
asS'pnn50percent'
p73
(lp74
S'pNN50 Percent'
p75
asS'tempvent'
p76
(lp77
S'Temp Vent'
p78
asS'bis'
p79
(lp80
S'BIS'
p81
asS'bapdias'
p82
(lp83
S'BAP DIAS'
p84
asS'uapsys'
p85
(lp86
S'UAP SYS'
p87
aS'UAP Sys'
p88
asS'aobpmean'
p89
(lp90
S'AOBP Mean'
p91
asS'p4dias'
p92
(lp93
S'P4 Dias'
p94
aS'P4 DIAS'
p95
asS'temp'
p96
(lp97
S'TEMP'
p98
asS'bap'
p99
(lp100
S'BAP'
p101
asS't1'
p102
(lp103
S'T1'
p104
asS'pvccount'
p105
(lp106
S'PVC Count'
p107
asS'aomean'
p108
(lp109
S'Ao MEAN'
p110
asS'aodias'
p111
(lp112
S'Ao DIAS'
p113
asS'art'
p114
(lp115
S'ART'
p116
asS'abpdias'
p117
(lp118
S'ABPDias'
p119
aS'ABP DIAS'
p120
aS'ABP Dias'
p121
asS'tempart'
p122
(lp123
S'Temp Art'
p124
asS'svpbruncount'
p125
(lp126
S'SVPB Run Count'
p127
asS'pacedbeatpercent'
p128
(lp129
S'Paced Beat Percent'
p130
asS'nbp'
p131
(lp132
S'NBP'
p133
asS'p1mean'
p134
(lp135
S'P1 Mean'
p136
aS'P1 MEAN'
p137
asS'pulse'
p138
(lp139
S'PULSE'
p140
asS'sti'
p141
(lp142
S'ST I'
p143
aS'ST_I'
p144
asS'pacedbeatcount'
p145
(lp146
S'Paced Beat Count'
p147
asS'rhythmstatus'
p148
(lp149
S'Rhythm Status'
p150
asS'awrr'
p151
(lp152
S'AWRR'
p153
asS'nbpsys'
p154
(lp155
S'NBPSys'
p156
aS'NBP Sys'
p157
aS'NBP SYS'
p158
asS'stiii'
p159
(lp160
S'ST III'
p161
aS'ST_III'
p162
asS'stv6'
p163
(lp164
S'ST_V6'
p165
asS'stv5'
p166
(lp167
S'ST_V5'
p168
asS'co2'
p169
(lp170
S'CO2'
p171
asS'pratemax'
p172
(lp173
S'P Rate Max'
p174
asS'stv2'
p175
(lp176
S'ST_V2'
p177
asS'aobp'
p178
(lp179
S'AOBP'
p180
asS'stmcl'
p181
(lp182
S'ST MCL'
p183
asS'abp'
p184
(lp185
S'ABP'
p186
asS'ectopiccount'
p187
(lp188
S'Ectopic Count'
p189
asS'normalbeatcount'
p190
(lp191
S'Normal Beat Count'
p192
asS'abpmean'
p193
(lp194
S'ABPMean'
p195
aS'ABP Mean'
p196
aS'ABP MEAN'
p197
asS'icp'
p198
(lp199
S'ICP'
p200
asS'aosys'
p201
(lp202
S'Ao SYS'
p203
asS'tcereb'
p204
(lp205
S'Tcereb'
p206
asS'atrialpacedpercent'
p207
(lp208
S'Atrial Paced Percent'
p209
asS'sratemax'
p210
(lp211
S'S Rate Max'
p212
asS'cvp1/3'
p213
(lp214
S'CVP_1/3'
p215
asS'lap2/3'
p216
(lp217
S'LAP_2/3'
p218
asS'uvpsys'
p219
(lp220
S'UVP Sys'
p221
asS'lap3/3'
p222
(lp223
S'LAP_3/3'
p224
asS'spo2aperiodic'
p225
(lp226
S'SpO2 Aperiodic'
p227
asS'c.i.'
p228
(lp229
S'C.I.'
p230
asS'missedbeatcount'
p231
(lp232
S'Missed Beat Count'
p233
asS'tesoph'
p234
(lp235
S'Tesoph'
p236
asS'difft'
p237
(lp238
S'DiffT'
p239
asS'tnaso'
p240
(lp241
S'Tnaso'
p242
asS'st-ii'
p243
(lp244
S'ST-II'
p245
asS'dualpacedbeatcount'
p246
(lp247
S'Dual Paced Beat Count'
p248
asS'ic2'
p249
(lp250
S'IC2'
p251
asS'ic1'
p252
(lp253
S'IC1'
p254
asS'bloodt'
p255
(lp256
S'BLOODT'
p257
asS'co'
p258
(lp259
S'CO'
p260
asS'atrialpacedbeatcount'
p261
(lp262
S'Atrial Paced Beat Count'
p263
asS'pacernotcapturecount'
p264
(lp265
S'Pacer Not Capture Count'
p266
asS'papdias'
p267
(lp268
S'PAP DIAS'
p269
aS'PAP Dias'
p270
aS'PAPDias'
p271
asS'tempskin'
p272
(lp273
S'Temp Skin'
p274
asS'stavf'
p275
(lp276
S'ST AVF'
p277
aS'ST_AVF'
p278
asS'pratemin'
p279
(lp280
S'P Rate Min'
p281
asS'tart'
p282
(lp283
S'Tart'
p284
asS'trigeminypercent'
p285
(lp286
S'Trigeminy Percent'
p287
asS'pacedruncount'
p288
(lp289
S'Paced Run Count'
p290
asS'st-avr'
p291
(lp292
S'ST-aVR'
p293
asS'lap'
p294
(lp295
S'LAP'
p296
asS'tcore'
p297
(lp298
S'Tcore'
p299
asS'vratemax'
p300
(lp301
S'V Rate Max'
p302
asS'lap1/3'
p303
(lp304
S'LAP_1/3'
p305
asS'uap'
p306
(lp307
S'UAP'
p308
asS'vratemin'
p309
(lp310
S'V Rate Min'
p311
asS'svpbcount'
p312
(lp313
S'SVPB Count'
p314
asS'bap3/3'
p315
(lp316
S'BAP_3/3'
p317
asS'st-avf'
p318
(lp319
S'ST-aVF'
p320
asS'hr'
p321
(lp322
S'HR'
p323
asS'dspo2'
p324
(lp325
S'dSpO2'
p326
asS'papsys'
p327
(lp328
S'PAPSys'
p329
aS'PAP Sys'
p330
aS'PAP SYS'
p331
asS'p4mean'
p332
(lp333
S'P4 Mean'
p334
aS'P4 MEAN'
p335
asS'imco2'
p336
(lp337
S'IMCO2'
p338
asS'artdias'
p339
(lp340
S'ART DIAS'
p341
aS'ART Dias'
p342
asS'tblood'
p343
(lp344
S'Tblood'
p345
asS'bap2/3'
p346
(lp347
S'BAP_2/3'
p348
asS'tempnasal'
p349
(lp350
S'Temp Nasal'
p351
asS'pvcrateperminute'
p352
(lp353
S'PVC Rate per Minute'
p354
asS'p1'
p355
(lp356
S'P1'
p357
asS'cvp2/3'
p358
(lp359
S'CVP_2/3'
p360
asS'p4'
p361
(lp362
S'P4'
p363
asS'papmean'
p364
(lp365
S'PAPMean'
p366
aS'PAP MEAN'
p367
aS'PAP Mean'
p368
asS'bap1/3'
p369
(lp370
S'BAP_1/3'
p371
asS'cvp3/3'
p372
(lp373
S'CVP_3/3'
p374
asS'p1sys'
p375
(lp376
S'P1 SYS'
p377
aS'P1 Sys'
p378
asS'cvp'
p379
(lp380
S'CVP'
p381
asS'bapmean'
p382
(lp383
S'BAP MEAN'
p384
asS'stv'
p385
(lp386
S'ST V'
p387
asS'uapdias'
p388
(lp389
S'UAP DIAS'
p390
aS'UAP Dias'
p391
asS'rap'
p392
(lp393
S'RAP'
p394
asS'fap1/3'
p395
(lp396
S'FAP_1/3'
p397
asS'ventpacedbeatcount'
p398
(lp399
S'Vent Paced Beat Count'
p400
asS'fap2/3'
p401
(lp402
S'FAP_2/3'
p403
asS'spo2'
p404
(lp405
S'SpO2'
p406
asS'st-v'
p407
(lp408
S'ST-V'
p409
asS'uvpdias'
p410
(lp411
S'UVP Dias'
p412
asS'st-i'
p413
(lp414
S'ST-I'
p415
asS'rap3/3'
p416
(lp417
S'RAP_3/3'
p418
asS'nbpdias'
p419
(lp420
S'NBP Dias'
p421
aS'NBPDias'
p422
aS'NBP DIAS'
p423
asS'pawp'
p424
(lp425
S'PAWP'
p426
asS'bigeminypercent'
p427
(lp428
S'Bigeminy Percent'
p429
asS'tempcore'
p430
(lp431
S'Temp Core'
p432
asS'dualpacedpercent'
p433
(lp434
S'Dual Paced Percent'
p435
asS'p4sys'
p436
(lp437
S'P4 Sys'
p438
aS'P4 SYS'
p439
asS'abpsys'
p440
(lp441
S'ABP SYS'
p442
aS'ABPSys'
p443
aS'ABP Sys'
p444
asS'multiformcount'
p445
(lp446
S'Multiform Count'
p447
asS'stii'
p448
(lp449
S'ST_II'
p450
aS'ST II'
p451
asS'st-iii'
p452
(lp453
S'ST-III'
p454
asS'rap2/3'
p455
(lp456
S'RAP_2/3'
p457
asS'tempdiff'
p458
(lp459
S'TEMPDIFF'
p460
asS'aobpsys'
p461
(lp462
S'AOBP Sys'
p463
asS'poorsignal'
p464
(lp465
S'Poor Signal'
p466
asS'tempesoph'
p467
(lp468
S'Temp Esoph'
p469
asS'rap1/3'
p470
(lp471
S'RAP_1/3'
p472
asS'artmean'
p473
(lp474
S'ART MEAN'
p475
aS'ART Mean'
p476
asS'fap'
p477
(lp478
S'FAP'
p479
asS'%spo2'
p480
(lp481
S'%SpO2'
p482
asS'aobpdias'
p483
(lp484
S'AOBP Dias'
p485
asS'pap'
p486
(lp487
S'PAP'
p488
asS'temprect'
p489
(lp490
S'Temp Rect'
p491
asS'allbeatcount'
p492
(lp493
S'All Beat Count'
p494
asS'tvesic'
p495
(lp496
S'Tvesic'
p497
asS'plsnbp'
p498
(lp499
S'PlsNBP'
p500
asS'ectopicstatus'
p501
(lp502
S'Ectopic Status'
p503
asS'stv4'
p504
(lp505
S'ST_V4'
p506
asS'spo2ap'
p507
(lp508
S'SpO2_AP'
p509
asS'vqruncount'
p510
(lp511
S'VQ Run Count'
p512
asS'st-mcl'
p513
(lp514
S'ST-MCL'
p515
asS'uvpmean'
p516
(lp517
S'UVP Mean'
p518
asS'etco2'
p519
(lp520
S'ETCO2'
p521
aS'EtCO2'
p522
asS'hrvariability'
p523
(lp524
S'HR Variability'
p525
asS'stv1'
p526
(lp527
S'ST_V1'
p528
asS'st-avl'
p529
(lp530
S'ST-aVL'
p531
asS'fap3/3'
p532
(lp533
S'FAP_3/3'
p534
asS'fapmean'
p535
(lp536
S'FAP MEAN'
p537
asS'irregularhrpercent'
p538
(lp539
S'Irregular HR Percent'
p540
asS'cpp'
p541
(lp542
S'CPP'
p543
asS'tskin'
p544
(lp545
S'Tskin'
p546
asS'trect'
p547
(lp548
S'Trect'
p549
as.